; Function Attrs: mustprogress nofree norecurse nosync nounwind willreturn memory(none) uwtable
define internal noundef ptr @_ZN5eastl8internal20function_base_detailILi24EE16function_managerIZ22TestFixedFunctionBasicvE7FunctorvJEE7ManagerEPvS6_NS2_17ManagerOperationsE(ptr noundef readnone %to, ptr readnone captures(none) %from, i32 noundef %ops) #9 align 2 personality ptr @__gxx_personality_v0 {
entry:
  switch i32 %ops, label %sw.default [
    i32 3, label %return
    i32 4, label %sw.bb1
  ]

sw.bb1:                                           ; preds = %entry
  br label %return

sw.default:                                       ; preds = %entry
  br label %return

return:                                           ; preds = %entry, %sw.default, %sw.bb1
  %retval.0 = phi ptr [ null, %sw.default ], [ %to, %sw.bb1 ], [ @_ZTIZ22TestFixedFunctionBasicvE7Functor, %entry ]
  ret ptr %retval.0
}